target datalayout = "e-m:e-p270:32:32-p271:32:32-p272:64:64-i64:64-i128:128-f80:128-n8:16:32:64-S128"
target triple = "x86_64-pc-linux-gnu"

%class.ZErrno = type { i32 }

@g_assert_poison = external global ptr, align 8
@.str.56 = private unnamed_addr constant [59 x i8] c"src/hotspot/os/linux/gc/z/zPhysicalMemoryBacking_linux.cpp\00", align 1
@.str.57 = private unnamed_addr constant [26 x i8] c"Failed to map memory (%s)\00", align 1

; Function Attrs: mustprogress nounwind uwtable
define linkonce_odr hidden noundef i64 @_Z6untype15zaddress_unsafe(i64 noundef %0) #1 comdat {
  %2 = alloca i64, align 8
  store i64 %0, ptr %2, align 8
  %3 = load i64, ptr %2, align 8
  ret i64 %3
}

; Function Attrs: mustprogress nounwind uwtable
define hidden void @_ZNK22ZPhysicalMemoryBacking5unmapE15zaddress_unsafem(ptr noundef nonnull align 8 dereferenceable(41) %0, i64 noundef %1, i64 noundef %2) #1 align 2 {
  %4 = alloca ptr, align 8
  %5 = alloca i64, align 8
  %6 = alloca i64, align 8
  %7 = alloca ptr, align 8
  %8 = alloca %class.ZErrno, align 4
  store ptr %0, ptr %4, align 8
  store i64 %1, ptr %5, align 8
  store i64 %2, ptr %6, align 8
  %9 = load i64, ptr %5, align 8
  %10 = call noundef i64 @_Z6untype15zaddress_unsafe(i64 noundef %9)
  %11 = inttoptr i64 %10 to ptr
  %12 = load i64, ptr %6, align 8
  %13 = call ptr @mmap64(ptr noundef %11, i64 noundef %12, i32 noundef 0, i32 noundef 16434, i32 noundef -1, i64 noundef 0) #8
  store ptr %13, ptr %7, align 8
  %14 = load ptr, ptr %7, align 8
  %15 = icmp eq ptr %14, inttoptr (i64 -1 to ptr)
  br i1 %15, label %16, label %21

16:                                               ; preds = %3
  call void @_ZN6ZErrnoC1Ev(ptr noundef nonnull align 4 dereferenceable(4) %8)
  br label %17

17:                                               ; preds = %16
  %18 = load ptr, ptr @g_assert_poison, align 8
  store i8 88, ptr %18, align 1
  %19 = call noundef ptr @_ZNK6ZErrno9to_stringEv(ptr noundef nonnull align 4 dereferenceable(4) %8)
  call void (i32, ptr, i32, ptr, ...) @_Z12report_fatal11VMErrorTypePKciS1_z(i32 noundef -536870912, ptr noundef @.str.56, i32 noundef 726, ptr noundef @.str.57, ptr noundef %19) #10
  unreachable

20:                                               ; No predecessors!
  br label %21

21:                                               ; preds = %20, %3
  ret void
}