; Function Attrs: mustprogress nounwind uwtable
define hidden void @_ZNK22ZPhysicalMemoryBacking5unmapE15zaddress_unsafem(ptr nocapture noundef nonnull readnone align 8 dereferenceable(41) %0, i64 noundef %1, i64 noundef %2) local_unnamed_addr #0 align 2 {
  %4 = alloca %class.ZErrno, align 4
  %5 = inttoptr i64 %1 to ptr
  %6 = tail call ptr @mmap64(ptr noundef %5, i64 noundef %2, i32 noundef 0, i32 noundef 16434, i32 noundef -1, i64 noundef 0) #12
  %7 = icmp eq ptr %6, inttoptr (i64 -1 to ptr)
  br i1 %7, label %8, label %11

8:                                                ; preds = %3
  call void @_ZN6ZErrnoC1Ev(ptr noundef nonnull align 4 dereferenceable(4) %4) #12
  %9 = load ptr, ptr @g_assert_poison, align 8
  store i8 88, ptr %9, align 1
  %10 = call noundef ptr @_ZNK6ZErrno9to_stringEv(ptr noundef nonnull align 4 dereferenceable(4) %4) #12
  call void (i32, ptr, i32, ptr, ...) @_Z12report_fatal11VMErrorTypePKciS1_z(i32 noundef -536870912, ptr noundef nonnull @.str.56, i32 noundef 726, ptr noundef nonnull @.str.57, ptr noundef %10) #14
  unreachable

11:                                               ; preds = %3
  ret void
}